target datalayout = "e-m:e-p270:32:32-p271:32:32-p272:64:64-i64:64-i128:128-f80:128-n8:16:32:64-S128"
target triple = "x86_64-pc-linux-gnu"

%struct.set_raw_client_data = type { ptr, i32, ptr, i32, i32 }

; Function Attrs: alwaysinline nounwind
define internal ptr @memcpy.inline(ptr noalias nonnull %0, ptr noalias nonnull %1, i64 %2) #5 {
  %4 = alloca ptr, align 8
  %5 = alloca ptr, align 8
  %6 = alloca i64, align 8
  store ptr %0, ptr %4, align 8, !tbaa !27
  store ptr %1, ptr %5, align 8, !tbaa !27
  store i64 %2, ptr %6, align 8, !tbaa !28
  %7 = load ptr, ptr %4, align 8, !tbaa !27
  %8 = load ptr, ptr %5, align 8, !tbaa !27
  %9 = load i64, ptr %6, align 8, !tbaa !28
  %10 = load ptr, ptr %4, align 8, !tbaa !27
  %11 = call i64 @llvm.objectsize.i64.p0(ptr %10, i1 false, i1 true, i1 false)
  %12 = call ptr @__memcpy_chk(ptr noundef %7, ptr noundef %8, i64 noundef %9, i64 noundef %11) #12
  ret ptr %12
}

; Function Attrs: nounwind sspstrong uwtable
define internal i32 @read_callback_(ptr noundef %0, ptr noundef %1, ptr noundef %2, ptr noundef %3) #0 {
  %5 = alloca i32, align 4
  %6 = alloca ptr, align 8
  %7 = alloca ptr, align 8
  %8 = alloca ptr, align 8
  %9 = alloca ptr, align 8
  %10 = alloca ptr, align 8
  %11 = alloca i32, align 4
  store ptr %0, ptr %6, align 8, !tbaa !27
  store ptr %1, ptr %7, align 8, !tbaa !14
  store ptr %2, ptr %8, align 8, !tbaa !89
  store ptr %3, ptr %9, align 8, !tbaa !27
  call void @llvm.lifetime.start.p0(i64 8, ptr %10) #12
  %12 = load ptr, ptr %9, align 8, !tbaa !27
  store ptr %12, ptr %10, align 8, !tbaa !27
  %13 = load ptr, ptr %10, align 8, !tbaa !27
  %14 = getelementptr inbounds nuw %struct.set_raw_client_data, ptr %13, i32 0, i32 4
  %15 = load i32, ptr %14, align 4, !tbaa !115
  %16 = icmp eq i32 %15, -4
  br i1 %16, label %17, label %34

17:                                               ; preds = %4
  %18 = load ptr, ptr %8, align 8, !tbaa !89
  %19 = load i64, ptr %18, align 8, !tbaa !28
  %20 = icmp ult i64 %19, 4
  br i1 %20, label %21, label %22

21:                                               ; preds = %17
  store i32 2, ptr %5, align 4
  store i32 1, ptr %11, align 4
  br label %93

22:                                               ; preds = %17
  %23 = load ptr, ptr %7, align 8, !tbaa !14
  %24 = getelementptr inbounds i8, ptr %23, i64 0
  store i8 102, ptr %24, align 1, !tbaa !16
  %25 = load ptr, ptr %7, align 8, !tbaa !14
  %26 = getelementptr inbounds i8, ptr %25, i64 1
  store i8 76, ptr %26, align 1, !tbaa !16
  %27 = load ptr, ptr %7, align 8, !tbaa !14
  %28 = getelementptr inbounds i8, ptr %27, i64 2
  store i8 97, ptr %28, align 1, !tbaa !16
  %29 = load ptr, ptr %7, align 8, !tbaa !14
  %30 = getelementptr inbounds i8, ptr %29, i64 3
  store i8 67, ptr %30, align 1, !tbaa !16
  %31 = load ptr, ptr %8, align 8, !tbaa !89
  store i64 4, ptr %31, align 8, !tbaa !28
  %32 = load ptr, ptr %10, align 8, !tbaa !27
  %33 = getelementptr inbounds nuw %struct.set_raw_client_data, ptr %32, i32 0, i32 4
  store i32 0, ptr %33, align 4, !tbaa !115
  store i32 0, ptr %5, align 4
  store i32 1, ptr %11, align 4
  br label %93

34:                                               ; preds = %4
  %35 = load ptr, ptr %10, align 8, !tbaa !27
  %36 = getelementptr inbounds nuw %struct.set_raw_client_data, ptr %35, i32 0, i32 4
  %37 = load i32, ptr %36, align 4, !tbaa !115
  %38 = icmp slt i32 %37, 0
  br i1 %38, label %39, label %40

39:                                               ; preds = %34
  store i32 2, ptr %5, align 4
  store i32 1, ptr %11, align 4
  br label %93

40:                                               ; preds = %34
  %41 = load ptr, ptr %10, align 8, !tbaa !27
  %42 = getelementptr inbounds nuw %struct.set_raw_client_data, ptr %41, i32 0, i32 4
  %43 = load i32, ptr %42, align 4, !tbaa !115
  %44 = load ptr, ptr %10, align 8, !tbaa !27
  %45 = getelementptr inbounds nuw %struct.set_raw_client_data, ptr %44, i32 0, i32 3
  %46 = load i32, ptr %45, align 8, !tbaa !112
  %47 = icmp eq i32 %43, %46
  br i1 %47, label %48, label %50

48:                                               ; preds = %40
  %49 = load ptr, ptr %8, align 8, !tbaa !89
  store i64 0, ptr %49, align 8, !tbaa !28
  store i32 1, ptr %5, align 4
  store i32 1, ptr %11, align 4
  br label %93

50:                                               ; preds = %40
  %51 = load ptr, ptr %8, align 8, !tbaa !89
  %52 = load i64, ptr %51, align 8, !tbaa !28
  %53 = trunc i64 %52 to i32
  %54 = load ptr, ptr %10, align 8, !tbaa !27
  %55 = getelementptr inbounds nuw %struct.set_raw_client_data, ptr %54, i32 0, i32 3
  %56 = load i32, ptr %55, align 8, !tbaa !112
  %57 = load ptr, ptr %10, align 8, !tbaa !27
  %58 = getelementptr inbounds nuw %struct.set_raw_client_data, ptr %57, i32 0, i32 4
  %59 = load i32, ptr %58, align 4, !tbaa !115
  %60 = sub nsw i32 %56, %59
  %61 = icmp sgt i32 %53, %60
  br i1 %61, label %62, label %72

62:                                               ; preds = %50
  %63 = load ptr, ptr %10, align 8, !tbaa !27
  %64 = getelementptr inbounds nuw %struct.set_raw_client_data, ptr %63, i32 0, i32 3
  %65 = load i32, ptr %64, align 8, !tbaa !112
  %66 = load ptr, ptr %10, align 8, !tbaa !27
  %67 = getelementptr inbounds nuw %struct.set_raw_client_data, ptr %66, i32 0, i32 4
  %68 = load i32, ptr %67, align 4, !tbaa !115
  %69 = sub nsw i32 %65, %68
  %70 = sext i32 %69 to i64
  %71 = load ptr, ptr %8, align 8, !tbaa !89
  store i64 %70, ptr %71, align 8, !tbaa !28
  br label %72

72:                                               ; preds = %62, %50
  %73 = load ptr, ptr %7, align 8, !tbaa !14
  %74 = load ptr, ptr %10, align 8, !tbaa !27
  %75 = getelementptr inbounds nuw %struct.set_raw_client_data, ptr %74, i32 0, i32 2
  %76 = load ptr, ptr %75, align 8, !tbaa !110
  %77 = load ptr, ptr %10, align 8, !tbaa !27
  %78 = getelementptr inbounds nuw %struct.set_raw_client_data, ptr %77, i32 0, i32 4
  %79 = load i32, ptr %78, align 4, !tbaa !115
  %80 = sext i32 %79 to i64
  %81 = getelementptr inbounds i8, ptr %76, i64 %80
  %82 = load ptr, ptr %8, align 8, !tbaa !89
  %83 = load i64, ptr %82, align 8, !tbaa !28
  %84 = call ptr @memcpy.inline(ptr noundef %73, ptr noundef %81, i64 noundef %83) #12
  %85 = load ptr, ptr %8, align 8, !tbaa !89
  %86 = load i64, ptr %85, align 8, !tbaa !28
  %87 = load ptr, ptr %10, align 8, !tbaa !27
  %88 = getelementptr inbounds nuw %struct.set_raw_client_data, ptr %87, i32 0, i32 4
  %89 = load i32, ptr %88, align 4, !tbaa !115
  %90 = sext i32 %89 to i64
  %91 = add i64 %90, %86
  %92 = trunc i64 %91 to i32
  store i32 %92, ptr %88, align 4, !tbaa !115
  store i32 0, ptr %5, align 4
  store i32 1, ptr %11, align 4
  br label %93

93:                                               ; preds = %72, %48, %39, %22, %21
  call void @llvm.lifetime.end.p0(i64 8, ptr %10) #12
  %94 = load i32, ptr %5, align 4
  ret i32 %94
}