; Function Attrs: nofree nounwind sspstrong memory(readwrite, inaccessiblemem: none) uwtable
define internal range(i32 0, 3) i32 @read_callback_(ptr readnone captures(none) %0, ptr noundef %1, ptr noundef captures(none) %2, ptr noundef captures(none) %3) #19 {
  %5 = getelementptr inbounds nuw i8, ptr %3, i64 28
  %6 = load i32, ptr %5, align 4, !tbaa !105
  %7 = icmp eq i32 %6, -4
  br i1 %7, label %8, label %15

8:                                                ; preds = %4
  %9 = load i64, ptr %2, align 8, !tbaa !76
  %10 = icmp ult i64 %9, 4
  br i1 %10, label %39, label %11

11:                                               ; preds = %8
  store i8 102, ptr %1, align 1, !tbaa !13
  %12 = getelementptr inbounds nuw i8, ptr %1, i64 1
  store i8 76, ptr %12, align 1, !tbaa !13
  %13 = getelementptr inbounds nuw i8, ptr %1, i64 2
  store i8 97, ptr %13, align 1, !tbaa !13
  %14 = getelementptr inbounds nuw i8, ptr %1, i64 3
  store i8 67, ptr %14, align 1, !tbaa !13
  store i64 4, ptr %2, align 8, !tbaa !76
  store i32 0, ptr %5, align 4, !tbaa !105
  br label %39

15:                                               ; preds = %4
  %16 = icmp slt i32 %6, 0
  br i1 %16, label %39, label %17

17:                                               ; preds = %15
  %18 = getelementptr inbounds nuw i8, ptr %3, i64 24
  %19 = load i32, ptr %18, align 8, !tbaa !102
  %20 = icmp eq i32 %6, %19
  br i1 %20, label %21, label %22

21:                                               ; preds = %17
  store i64 0, ptr %2, align 8, !tbaa !76
  br label %39

22:                                               ; preds = %17
  %23 = load i64, ptr %2, align 8, !tbaa !76
  %24 = trunc i64 %23 to i32
  %25 = sub nsw i32 %19, %6
  %26 = icmp slt i32 %25, %24
  br i1 %26, label %27, label %29

27:                                               ; preds = %22
  %28 = sext i32 %25 to i64
  store i64 %28, ptr %2, align 8, !tbaa !76
  br label %29

29:                                               ; preds = %27, %22
  %30 = phi i64 [ %28, %27 ], [ %23, %22 ]
  %31 = getelementptr inbounds nuw i8, ptr %3, i64 16
  %32 = load ptr, ptr %31, align 8, !tbaa !99
  %33 = zext nneg i32 %6 to i64
  %34 = getelementptr inbounds nuw i8, ptr %32, i64 %33
  tail call void @llvm.memcpy.p0.p0.i64(ptr noundef nonnull align 1 %1, ptr noundef nonnull align 1 %34, i64 noundef %30, i1 noundef false) #31
  %35 = load i64, ptr %2, align 8, !tbaa !76
  %36 = load i32, ptr %5, align 4, !tbaa !105
  %37 = trunc i64 %35 to i32
  %38 = add i32 %36, %37
  store i32 %38, ptr %5, align 4, !tbaa !105
  br label %39

39:                                               ; preds = %15, %8, %29, %21, %11
  %.0 = phi i32 [ 0, %11 ], [ 1, %21 ], [ 0, %29 ], [ 2, %8 ], [ 2, %15 ]
  ret i32 %.0
}